target datalayout = "e-m:e-p270:32:32-p271:32:32-p272:64:64-i64:64-i128:128-f80:128-n8:16:32:64-S128"
target triple = "x86_64-pc-linux-gnu"

%struct.st_engine_cleanup_item = type { ptr }

@.str = private unnamed_addr constant [35 x i8] c"../openssl/crypto/engine/eng_lib.c\00", align 1
@cleanup_stack = internal global ptr null, align 8

; Function Attrs: inlinehint nounwind uwtable
define internal ptr @sk_ENGINE_CLEANUP_ITEM_new_null() #3 {
  %1 = call ptr @OPENSSL_sk_new_null()
  ret ptr %1
}

; Function Attrs: inlinehint nounwind uwtable
define internal i32 @sk_ENGINE_CLEANUP_ITEM_push(ptr noundef %0, ptr noundef %1) #3 {
  %3 = alloca ptr, align 8
  %4 = alloca ptr, align 8
  store ptr %0, ptr %3, align 8, !tbaa !45
  store ptr %1, ptr %4, align 8, !tbaa !43
  %5 = load ptr, ptr %3, align 8, !tbaa !45
  %6 = load ptr, ptr %4, align 8, !tbaa !43
  %7 = call i32 @OPENSSL_sk_push(ptr noundef %5, ptr noundef %6)
  ret i32 %7
}

; Function Attrs: nounwind uwtable
define internal ptr @int_cleanup_item(ptr noundef %0) #0 {
  %2 = alloca ptr, align 8
  %3 = alloca ptr, align 8
  %4 = alloca ptr, align 8
  %5 = alloca i32, align 4
  store ptr %0, ptr %3, align 8, !tbaa !7
  call void @llvm.lifetime.start.p0(i64 8, ptr %4) #4
  %6 = call noalias ptr @CRYPTO_malloc(i64 noundef 8, ptr noundef @.str, i32 noundef 132)
  store ptr %6, ptr %4, align 8, !tbaa !43
  %7 = icmp eq ptr %6, null
  br i1 %7, label %8, label %9

8:                                                ; preds = %1
  store ptr null, ptr %2, align 8
  store i32 1, ptr %5, align 4
  br label %14

9:                                                ; preds = %1
  %10 = load ptr, ptr %3, align 8, !tbaa !7
  %11 = load ptr, ptr %4, align 8, !tbaa !43
  %12 = getelementptr inbounds nuw %struct.st_engine_cleanup_item, ptr %11, i32 0, i32 0
  store ptr %10, ptr %12, align 8, !tbaa !47
  %13 = load ptr, ptr %4, align 8, !tbaa !43
  store ptr %13, ptr %2, align 8
  store i32 1, ptr %5, align 4
  br label %14

14:                                               ; preds = %9, %8
  call void @llvm.lifetime.end.p0(i64 8, ptr %4) #4
  %15 = load ptr, ptr %2, align 8
  ret ptr %15
}

; Function Attrs: nounwind uwtable
define internal i32 @int_cleanup_check(i32 noundef %0) #0 {
  %2 = alloca i32, align 4
  %3 = alloca i32, align 4
  store i32 %0, ptr %3, align 4, !tbaa !3
  %4 = load ptr, ptr @cleanup_stack, align 8, !tbaa !45
  %5 = icmp ne ptr %4, null
  br i1 %5, label %6, label %7

6:                                                ; preds = %1
  store i32 1, ptr %2, align 4
  br label %16

7:                                                ; preds = %1
  %8 = load i32, ptr %3, align 4, !tbaa !3
  %9 = icmp ne i32 %8, 0
  br i1 %9, label %11, label %10

10:                                               ; preds = %7
  store i32 0, ptr %2, align 4
  br label %16

11:                                               ; preds = %7
  %12 = call ptr @sk_ENGINE_CLEANUP_ITEM_new_null()
  store ptr %12, ptr @cleanup_stack, align 8, !tbaa !45
  %13 = load ptr, ptr @cleanup_stack, align 8, !tbaa !45
  %14 = icmp ne ptr %13, null
  %15 = select i1 %14, i32 1, i32 0
  store i32 %15, ptr %2, align 4
  br label %16

16:                                               ; preds = %11, %10, %6
  %17 = load i32, ptr %2, align 4
  ret i32 %17
}

; Function Attrs: nounwind uwtable
define i32 @engine_cleanup_add_last(ptr noundef %0) #0 {
  %2 = alloca i32, align 4
  %3 = alloca ptr, align 8
  %4 = alloca ptr, align 8
  %5 = alloca i32, align 4
  store ptr %0, ptr %3, align 8, !tbaa !7
  call void @llvm.lifetime.start.p0(i64 8, ptr %4) #4
  %6 = call i32 @int_cleanup_check(i32 noundef 1)
  %7 = icmp ne i32 %6, 0
  br i1 %7, label %9, label %8

8:                                                ; preds = %1
  store i32 0, ptr %2, align 4
  store i32 1, ptr %5, align 4
  br label %23

9:                                                ; preds = %1
  %10 = load ptr, ptr %3, align 8, !tbaa !7
  %11 = call ptr @int_cleanup_item(ptr noundef %10)
  store ptr %11, ptr %4, align 8, !tbaa !43
  %12 = load ptr, ptr %4, align 8, !tbaa !43
  %13 = icmp ne ptr %12, null
  br i1 %13, label %14, label %22

14:                                               ; preds = %9
  %15 = load ptr, ptr @cleanup_stack, align 8, !tbaa !45
  %16 = load ptr, ptr %4, align 8, !tbaa !43
  %17 = call i32 @sk_ENGINE_CLEANUP_ITEM_push(ptr noundef %15, ptr noundef %16)
  %18 = icmp sgt i32 %17, 0
  br i1 %18, label %19, label %20

19:                                               ; preds = %14
  store i32 1, ptr %2, align 4
  store i32 1, ptr %5, align 4
  br label %23

20:                                               ; preds = %14
  %21 = load ptr, ptr %4, align 8, !tbaa !43
  call void @CRYPTO_free(ptr noundef %21, ptr noundef @.str, i32 noundef 163)
  br label %22

22:                                               ; preds = %20, %9
  store i32 0, ptr %2, align 4
  store i32 1, ptr %5, align 4
  br label %23

23:                                               ; preds = %22, %19, %8
  call void @llvm.lifetime.end.p0(i64 8, ptr %4) #4
  %24 = load i32, ptr %2, align 4
  ret i32 %24
}