; Function Attrs: nounwind uwtable
define range(i32 0, 2) i32 @engine_cleanup_add_last(ptr noundef %0) local_unnamed_addr #0 {
  %2 = load ptr, ptr @cleanup_stack, align 8, !tbaa !27
  %.not.i = icmp eq ptr %2, null
  br i1 %.not.i, label %int_cleanup_check.exit, label %int_cleanup_check.exit.thread

int_cleanup_check.exit:                           ; preds = %1
  %3 = tail call ptr @OPENSSL_sk_new_null() #6
  store ptr %3, ptr @cleanup_stack, align 8, !tbaa !27
  %.not3.i.not = icmp eq ptr %3, null
  br i1 %.not3.i.not, label %int_cleanup_item.exit.thread, label %int_cleanup_check.exit.thread

int_cleanup_check.exit.thread:                    ; preds = %1, %int_cleanup_check.exit
  %4 = tail call noalias ptr @CRYPTO_malloc(i64 noundef 8, ptr noundef nonnull @.str, i32 noundef 132) #6
  %5 = icmp eq ptr %4, null
  br i1 %5, label %int_cleanup_item.exit.thread, label %6

6:                                                ; preds = %int_cleanup_check.exit.thread
  store ptr %0, ptr %4, align 8, !tbaa !29
  %7 = load ptr, ptr @cleanup_stack, align 8, !tbaa !27
  %8 = tail call i32 @OPENSSL_sk_push(ptr noundef %7, ptr noundef nonnull %4) #6
  %9 = icmp sgt i32 %8, 0
  br i1 %9, label %int_cleanup_item.exit.thread, label %10

10:                                               ; preds = %6
  tail call void @CRYPTO_free(ptr noundef nonnull %4, ptr noundef nonnull @.str, i32 noundef 163) #6
  br label %int_cleanup_item.exit.thread

int_cleanup_item.exit.thread:                     ; preds = %int_cleanup_check.exit.thread, %10, %6, %int_cleanup_check.exit
  %.0 = phi i32 [ 0, %int_cleanup_check.exit ], [ 1, %6 ], [ 0, %10 ], [ 0, %int_cleanup_check.exit.thread ]
  ret i32 %.0
}